target datalayout = "e-m:e-p270:32:32-p271:32:32-p272:64:64-i64:64-i128:128-f80:128-n8:16:32:64-S128"
target triple = "x86_64-pc-linux-gnu"

%struct.H5HF_free_section_t = type { %struct.H5FS_section_info_t, %union.anon }
%struct.H5FS_section_info_t = type { i64, i64, i32, i32 }
%union.anon = type { %struct.anon.1 }
%struct.anon.1 = type { %union.anon.2, i32, i32, i32, ptr, i32, i64, i32, i32, i32, ptr, i32, ptr }
%union.anon.2 = type { ptr }

@H5HF_init_g = external global i8, align 1
@H5_libterm_g = external global i8, align 1
@.str = private unnamed_addr constant [105 x i8] c"generated/home/dtcxzyw/WorkSpace/Projects/compilers/llvm-opt-benchmark/bench/hdf5/hdf5/src/H5HFsection.c\00", align 1
@H5E_RESOURCE_g = external global i64, align 8
@H5E_NOSPACE_g = external global i64, align 8
@__func__.H5FS__sect_node_new = private unnamed_addr constant [20 x i8] c"H5FS__sect_node_new\00", align 1
@.str.16 = private unnamed_addr constant [60 x i8] c"memory allocation failed for direct block free list section\00", align 1
@H5_H5HF_free_section_t_reg_free_list = internal global { i8, [3 x i8], i32, i32, [4 x i8], ptr, i64, ptr } { i8 0, [3 x i8] zeroinitializer, i32 0, i32 0, [4 x i8] zeroinitializer, ptr @.str.17, i64 112, ptr null }, align 8
@__func__.H5HF__sect_single_deserialize = private unnamed_addr constant [30 x i8] c"H5HF__sect_single_deserialize\00", align 1
@.str.32 = private unnamed_addr constant [53 x i8] c"allocation failed for direct block free list section\00", align 1

; Function Attrs: nounwind uwtable
define internal ptr @H5FS__sect_node_new(i32 noundef %0, i64 noundef %1, i64 noundef %2, i32 noundef %3) #0 {
  %5 = alloca i32, align 4
  %6 = alloca i64, align 8
  %7 = alloca i64, align 8
  %8 = alloca i32, align 4
  %9 = alloca ptr, align 8
  %10 = alloca ptr, align 8
  %11 = alloca i8, align 1
  store i32 %0, ptr %5, align 4, !tbaa !11
  store i64 %1, ptr %6, align 8, !tbaa !25
  store i64 %2, ptr %7, align 8, !tbaa !25
  store i32 %3, ptr %8, align 4, !tbaa !11
  call void @llvm.lifetime.start.p0(i64 8, ptr %9) #7
  call void @llvm.lifetime.start.p0(i64 8, ptr %10) #7
  store ptr null, ptr %10, align 8, !tbaa !23
  call void @llvm.lifetime.start.p0(i64 1, ptr %11) #7
  store i8 0, ptr %11, align 1, !tbaa !13
  %12 = load i8, ptr @H5HF_init_g, align 1, !tbaa !13, !range !15, !noundef !16
  %13 = trunc i8 %12 to i1
  br i1 %13, label %18, label %14

14:                                               ; preds = %4
  %15 = load i8, ptr @H5_libterm_g, align 1, !tbaa !13, !range !15, !noundef !16
  %16 = trunc i8 %15 to i1
  %17 = xor i1 %16, true
  br label %18

18:                                               ; preds = %14, %4
  %19 = phi i1 [ true, %4 ], [ %17, %14 ]
  %20 = xor i1 %19, true
  %21 = xor i1 %20, true
  %22 = zext i1 %21 to i32
  %23 = sext i32 %22 to i64
  %24 = call i64 @llvm.expect.i64(i64 %23, i64 1)
  %25 = icmp ne i64 %24, 0
  br i1 %25, label %26, label %67

26:                                               ; preds = %18
  %27 = call noalias ptr @H5FL_reg_malloc(ptr noundef @H5_H5HF_free_section_t_reg_free_list)
  store ptr %27, ptr %9, align 8, !tbaa !23
  %28 = icmp eq ptr null, %27
  br i1 %28, label %29, label %48

29:                                               ; preds = %26
  br label %30

30:                                               ; preds = %29
  br label %31

31:                                               ; preds = %30
  br label %32

32:                                               ; preds = %31
  %33 = load i64, ptr @H5E_RESOURCE_g, align 8, !tbaa !25
  %34 = load i64, ptr @H5E_NOSPACE_g, align 8, !tbaa !25
  %35 = call i32 (ptr, ptr, i32, i64, i64, ptr, ...) @H5E_printf_stack(ptr noundef @.str, ptr noundef @__func__.H5FS__sect_node_new, i32 noundef 372, i64 noundef %33, i64 noundef %34, ptr noundef @.str.16)
  br label %36

36:                                               ; preds = %32
  br label %37

37:                                               ; preds = %36
  store i8 1, ptr %11, align 1, !tbaa !13
  %38 = load i8, ptr %11, align 1, !tbaa !13, !range !15, !noundef !16
  %39 = trunc i8 %38 to i1
  %40 = zext i1 %39 to i8
  store i8 %40, ptr %11, align 1, !tbaa !13
  br label %41

41:                                               ; preds = %37
  br label %42

42:                                               ; preds = %41
  br label %43

43:                                               ; preds = %42
  store ptr null, ptr %10, align 8, !tbaa !23
  br label %66

44:                                               ; No predecessors!
  br label %45

45:                                               ; preds = %44
  br label %46

46:                                               ; preds = %45
  br label %47

47:                                               ; preds = %46
  br label %48

48:                                               ; preds = %47, %26
  %49 = load i64, ptr %6, align 8, !tbaa !25
  %50 = load ptr, ptr %9, align 8, !tbaa !23
  %51 = getelementptr inbounds nuw %struct.H5HF_free_section_t, ptr %50, i32 0, i32 0
  %52 = getelementptr inbounds nuw %struct.H5FS_section_info_t, ptr %51, i32 0, i32 0
  store i64 %49, ptr %52, align 8, !tbaa !36
  %53 = load i64, ptr %7, align 8, !tbaa !25
  %54 = load ptr, ptr %9, align 8, !tbaa !23
  %55 = getelementptr inbounds nuw %struct.H5HF_free_section_t, ptr %54, i32 0, i32 0
  %56 = getelementptr inbounds nuw %struct.H5FS_section_info_t, ptr %55, i32 0, i32 1
  store i64 %53, ptr %56, align 8, !tbaa !37
  %57 = load i32, ptr %5, align 4, !tbaa !11
  %58 = load ptr, ptr %9, align 8, !tbaa !23
  %59 = getelementptr inbounds nuw %struct.H5HF_free_section_t, ptr %58, i32 0, i32 0
  %60 = getelementptr inbounds nuw %struct.H5FS_section_info_t, ptr %59, i32 0, i32 2
  store i32 %57, ptr %60, align 8, !tbaa !27
  %61 = load i32, ptr %8, align 4, !tbaa !11
  %62 = load ptr, ptr %9, align 8, !tbaa !23
  %63 = getelementptr inbounds nuw %struct.H5HF_free_section_t, ptr %62, i32 0, i32 0
  %64 = getelementptr inbounds nuw %struct.H5FS_section_info_t, ptr %63, i32 0, i32 3
  store i32 %61, ptr %64, align 4, !tbaa !38
  %65 = load ptr, ptr %9, align 8, !tbaa !23
  store ptr %65, ptr %10, align 8, !tbaa !23
  br label %66

66:                                               ; preds = %48, %43
  br label %67

67:                                               ; preds = %66, %18
  %68 = load ptr, ptr %10, align 8, !tbaa !23
  call void @llvm.lifetime.end.p0(i64 1, ptr %11) #7
  call void @llvm.lifetime.end.p0(i64 8, ptr %10) #7
  call void @llvm.lifetime.end.p0(i64 8, ptr %9) #7
  ret ptr %68
}

; Function Attrs: nounwind uwtable
define internal ptr @H5HF__sect_single_deserialize(ptr noundef %0, ptr noundef %1, i64 noundef %2, i64 noundef %3, ptr noundef %4) #0 {
  %6 = alloca ptr, align 8
  %7 = alloca ptr, align 8
  %8 = alloca i64, align 8
  %9 = alloca i64, align 8
  %10 = alloca ptr, align 8
  %11 = alloca ptr, align 8
  %12 = alloca ptr, align 8
  %13 = alloca i8, align 1
  store ptr %0, ptr %6, align 8, !tbaa !30
  store ptr %1, ptr %7, align 8, !tbaa !32
  store i64 %2, ptr %8, align 8, !tbaa !25
  store i64 %3, ptr %9, align 8, !tbaa !25
  store ptr %4, ptr %10, align 8, !tbaa !8
  call void @llvm.lifetime.start.p0(i64 8, ptr %11) #7
  call void @llvm.lifetime.start.p0(i64 8, ptr %12) #7
  store ptr null, ptr %12, align 8, !tbaa !34
  call void @llvm.lifetime.start.p0(i64 1, ptr %13) #7
  store i8 0, ptr %13, align 1, !tbaa !13
  %14 = load i8, ptr @H5HF_init_g, align 1, !tbaa !13, !range !15, !noundef !16
  %15 = trunc i8 %14 to i1
  br i1 %15, label %20, label %16

16:                                               ; preds = %5
  %17 = load i8, ptr @H5_libterm_g, align 1, !tbaa !13, !range !15, !noundef !16
  %18 = trunc i8 %17 to i1
  %19 = xor i1 %18, true
  br label %20

20:                                               ; preds = %16, %5
  %21 = phi i1 [ true, %5 ], [ %19, %16 ]
  %22 = xor i1 %21, true
  %23 = xor i1 %22, true
  %24 = zext i1 %23 to i32
  %25 = sext i32 %24 to i64
  %26 = call i64 @llvm.expect.i64(i64 %25, i64 1)
  %27 = icmp ne i64 %26, 0
  br i1 %27, label %28, label %55

28:                                               ; preds = %20
  %29 = load i64, ptr %8, align 8, !tbaa !25
  %30 = load i64, ptr %9, align 8, !tbaa !25
  %31 = call ptr @H5FS__sect_node_new(i32 noundef 0, i64 noundef %29, i64 noundef %30, i32 noundef 1)
  store ptr %31, ptr %11, align 8, !tbaa !23
  %32 = icmp eq ptr null, %31
  br i1 %32, label %33, label %52

33:                                               ; preds = %28
  br label %34

34:                                               ; preds = %33
  br label %35

35:                                               ; preds = %34
  br label %36

36:                                               ; preds = %35
  %37 = load i64, ptr @H5E_RESOURCE_g, align 8, !tbaa !25
  %38 = load i64, ptr @H5E_NOSPACE_g, align 8, !tbaa !25
  %39 = call i32 (ptr, ptr, i32, i64, i64, ptr, ...) @H5E_printf_stack(ptr noundef @.str, ptr noundef @__func__.H5HF__sect_single_deserialize, i32 noundef 803, i64 noundef %37, i64 noundef %38, ptr noundef @.str.32)
  br label %40

40:                                               ; preds = %36
  br label %41

41:                                               ; preds = %40
  store i8 1, ptr %13, align 1, !tbaa !13
  %42 = load i8, ptr %13, align 1, !tbaa !13, !range !15, !noundef !16
  %43 = trunc i8 %42 to i1
  %44 = zext i1 %43 to i8
  store i8 %44, ptr %13, align 1, !tbaa !13
  br label %45

45:                                               ; preds = %41
  br label %46

46:                                               ; preds = %45
  br label %47

47:                                               ; preds = %46
  store ptr null, ptr %12, align 8, !tbaa !34
  br label %54

48:                                               ; No predecessors!
  br label %49

49:                                               ; preds = %48
  br label %50

50:                                               ; preds = %49
  br label %51

51:                                               ; preds = %50
  br label %52

52:                                               ; preds = %51, %28
  %53 = load ptr, ptr %11, align 8, !tbaa !23
  store ptr %53, ptr %12, align 8, !tbaa !34
  br label %54

54:                                               ; preds = %52, %47
  br label %55

55:                                               ; preds = %54, %20
  %56 = load ptr, ptr %12, align 8, !tbaa !34
  call void @llvm.lifetime.end.p0(i64 1, ptr %13) #7
  call void @llvm.lifetime.end.p0(i64 8, ptr %12) #7
  call void @llvm.lifetime.end.p0(i64 8, ptr %11) #7
  ret ptr %56
}