; Function Attrs: nounwind uwtable
define internal noalias ptr @H5HF__sect_single_deserialize(ptr readnone captures(none) %0, ptr readnone captures(none) %1, i64 noundef %2, i64 noundef %3, ptr readnone captures(none) %4) #0 {
  %6 = load i8, ptr @H5HF_init_g, align 1, !tbaa !3, !range !7, !noundef !8
  %7 = trunc nuw i8 %6 to i1
  %8 = load i8, ptr @H5_libterm_g, align 1, !range !7
  %9 = trunc nuw i8 %8 to i1
  %10 = xor i1 %9, true
  %11 = select i1 %7, i1 true, i1 %10
  br i1 %11, label %12, label %25, !prof !9

12:                                               ; preds = %5
  %13 = tail call noalias ptr @H5FL_reg_malloc(ptr noundef nonnull @H5_H5HF_free_section_t_reg_free_list) #13
  %14 = icmp eq ptr %13, null
  br i1 %14, label %18, label %H5FS__sect_node_new.exit

H5FS__sect_node_new.exit:                         ; preds = %12
  store i64 %2, ptr %13, align 8, !tbaa !23
  %15 = getelementptr inbounds nuw i8, ptr %13, i64 8
  store i64 %3, ptr %15, align 8, !tbaa !24
  %16 = getelementptr inbounds nuw i8, ptr %13, i64 16
  store i32 0, ptr %16, align 8, !tbaa !20
  %17 = getelementptr inbounds nuw i8, ptr %13, i64 20
  store i32 1, ptr %17, align 4, !tbaa !25
  br label %25

18:                                               ; preds = %12
  %19 = load i64, ptr @H5E_RESOURCE_g, align 8, !tbaa !18
  %20 = load i64, ptr @H5E_NOSPACE_g, align 8, !tbaa !18
  %21 = tail call i32 (ptr, ptr, i32, i64, i64, ptr, ...) @H5E_printf_stack(ptr noundef nonnull @.str, ptr noundef nonnull @__func__.H5FS__sect_node_new, i32 noundef 372, i64 noundef %19, i64 noundef %20, ptr noundef nonnull @.str.16) #13
  %22 = load i64, ptr @H5E_RESOURCE_g, align 8, !tbaa !18
  %23 = load i64, ptr @H5E_NOSPACE_g, align 8, !tbaa !18
  %24 = tail call i32 (ptr, ptr, i32, i64, i64, ptr, ...) @H5E_printf_stack(ptr noundef nonnull @.str, ptr noundef nonnull @__func__.H5HF__sect_single_deserialize, i32 noundef 803, i64 noundef %22, i64 noundef %23, ptr noundef nonnull @.str.32) #13
  br label %25

25:                                               ; preds = %H5FS__sect_node_new.exit, %18, %5
  %.0 = phi ptr [ null, %18 ], [ null, %5 ], [ %13, %H5FS__sect_node_new.exit ]
  ret ptr %.0
}